-----BEGIN PRIVATE KEY-----
MIIEvQIBADANBgkqhkiG9w0BAQEFAASCBKcwggSjAgEAAoIBAQCy2l4Kt7QOM373
IYNWPFdWC2L8Xkm6J/LpFpKbWXlbbAfLPsln2ZQoPoYuU8QfXWG9aNa3NSVlA8pU
5bnXyCTutGkWwyrL0kfi3Y+55A4GT7jRPXoZo1Y6HLEZF381SUIEVbPhjjPJnE7I
ZdMg3fT8xui/htspjw4MYCkF1pMYLoIQI+Qa2hE9tEgRulJpI5XpvGiyHYExYhDl
HD0pu4NW50/OXVDefgtX/h8zJx5shSTHzlxX1vLnACAVKgcfjW3HebvzVApX/8gK
X/z6IL880DgKc9pjTDxSrbJGhSq4h9vGl4Cqgxq4JE6OB9RGvv5oMUW5NHsC63Ev
aG/vvpeTAgMBAAECggEARSrgDaMHtipCIs7KHRKO8A7NRC4usxh5/5ykLAIJRcrc
pMRuXYQuoPW1LLtmcH7LqtWdnBKomI1DtVt2aLXVWp9YuN3XciWreVgYGlrQ9a3l
Gr58tueNFEI+VybYIkJnjoeaXlOBQan6adO/N8m+0fcW0eMUZNkXJMAXfVODZWkI
OismT9i63y34bxskk4wnC6N80hFtRtC19GcO4uJKnsGINru80bXRGUCXxWVOj2KR
2a132iZsOSF6ppO9hVIUucoufXZ+TkilgzcHARbJjLzOsh4gn5xUPsjWbwQUSHOv
z3F2WcHpTBl9soEcrJTkFSu5aB5RGVCoMpwyuQVe0QKBgQDy9k75BL2kpVMcAlxp
AmFraoPVhyNgCRsD7gQ9Urp8l8k7zyeEwkl2WAoxqo7xBTgqdssrgHkjipt3ZJgA
plOWHzRkLOte9PP8jA7KdsJIgFvUzMlhPeKfWh9CoXpgUxZSAGeSE/RK9IdyA3kr
N70ydQh3Igd48cuGzP/gO06IiQKBgQC8c1wXBiloBUQJJstgEQb3IzBeWJ6GCjAd
To4IPoDQb2G44v/nq5PAfgq5hpA9HPLjWFzMTbuUj0XidF3nt3CL/rPmviBkT6dD
/CpT9IIP4FaoPSmkfZI4FbnjAVixkEfPVfTiydNvQK4/J0+CcnOxzw/P73z+HHXD
/UHFifQgOwKBgQDf/u+eK52/3t/5kb+q3JP+WUxEH3wgvSRYAieMdeoSlknjxz+y
6QCbh92WHp38XYiDtdPoPmDwwIhGkcqFxtKHNCu0M6moeQM8kc/NH6JM/3Iqhccf
zNNTgN4TKxbNGa0ZWuAh0B3IwRripYsfqhrXGwj79LaY7atrkzJQg70KqQKBgC5j
44aTcLv3l+D82NHEP0e1NOH0xMlQVrnQLayf3kvxL0g5MS/Rj+Sx4mf7VSSGLNCE
Xwu4EvYmMtjlNnylLqJ3x8eEhCrNZOqad70FEsNfwVVXARpKAyWlS4YzPacwUk0a
5taxQkg/zuUjAzKkhBCAXW8dkFJppR/jBz7ej+cjAoGAaMQbzRtOnrpQHoa6vcE0
dhkRX/zt85wKf1oF5y4atn/QD+kvDbbVlnXs3Oh0/YJDrlxUfaB2NblCnXg8ZdfO
wK+gjj2yaCT5Z+ib92jq3Zv2iEWPv3+RczrmclO50VnDjJXOaKDtWPN1S45dVQ4O
EjD5ylMnhyeeSGodR4OHPb0=
-----END PRIVATE KEY-----
Certificate:
    Data:
        Version: 3 (0x2)
        Serial Number: 4097 (0x1001)
        Signature Algorithm: sha256WithRSAEncryption
        Issuer: C=BD, ST=SYLHET, L=Akhalia, Shurma, O=SUST, OU=SWE, CN=abraar19/emailAddress=abraar.codes@icloud.com
        Validity
            Not Before: Jul  2 07:09:27 2024 GMT
            Not After : Jul  2 07:09:27 2025 GMT
        Subject: C=BD, ST=SYLHET, O=SUST, OU=SWE, CN=abraar19/emailAddress=abraar.codes@icloud.com
        Subject Public Key Info:
            Public Key Algorithm: rsaEncryption
                Public-Key: (2048 bit)
                Modulus:
                    00:b2:da:5e:0a:b7:b4:0e:33:7e:f7:21:83:56:3c:
                    57:56:0b:62:fc:5e:49:ba:27:f2:e9:16:92:9b:59:
                    79:5b:6c:07:cb:3e:c9:67:d9:94:28:3e:86:2e:53:
                    c4:1f:5d:61:bd:68:d6:b7:35:25:65:03:ca:54:e5:
                    b9:d7:c8:24:ee:b4:69:16:c3:2a:cb:d2:47:e2:dd:
                    8f:b9:e4:0e:06:4f:b8:d1:3d:7a:19:a3:56:3a:1c:
                    b1:19:17:7f:35:49:42:04:55:b3:e1:8e:33:c9:9c:
                    4e:c8:65:d3:20:dd:f4:fc:c6:e8:bf:86:db:29:8f:
                    0e:0c:60:29:05:d6:93:18:2e:82:10:23:e4:1a:da:
                    11:3d:b4:48:11:ba:52:69:23:95:e9:bc:68:b2:1d:
                    81:31:62:10:e5:1c:3d:29:bb:83:56:e7:4f:ce:5d:
                    50:de:7e:0b:57:fe:1f:33:27:1e:6c:85:24:c7:ce:
                    5c:57:d6:f2:e7:00:20:15:2a:07:1f:8d:6d:c7:79:
                    bb:f3:54:0a:57:ff:c8:0a:5f:fc:fa:20:bf:3c:d0:
                    38:0a:73:da:63:4c:3c:52:ad:b2:46:85:2a:b8:87:
                    db:c6:97:80:aa:83:1a:b8:24:4e:8e:07:d4:46:be:
                    fe:68:31:45:b9:34:7b:02:eb:71:2f:68:6f:ef:be:
                    97:93
                Exponent: 65537 (0x10001)
        X509v3 extensions:
            X509v3 Basic Constraints: 
                CA:FALSE
            X509v3 Subject Key Identifier: 
                55:7D:C4:00:B0:36:10:56:67:2D:C7:CD:B5:F5:B0:CD:51:07:30:EB
            X509v3 Authority Key Identifier: 
                24:00:35:6D:D3:59:26:CB:1E:51:20:E6:15:98:A4:60:CD:3B:97:5A
    Signature Algorithm: sha256WithRSAEncryption
    Signature Value:
        53:4a:35:a9:20:82:84:2a:97:9a:6f:e7:32:43:79:35:39:0b:
        bf:e6:4b:04:f8:61:7a:26:03:4e:cf:4a:af:c1:8c:28:ee:8f:
        5d:2c:e7:46:20:2a:57:34:76:5b:17:32:e8:bc:a7:13:ad:96:
        f9:33:1f:95:44:53:69:d9:e8:6d:86:c2:51:10:dc:e5:ab:79:
        99:ad:41:ee:82:00:02:bc:5c:19:c6:36:83:83:d1:79:ed:59:
        4f:58:7d:c6:6e:27:87:4b:73:ec:04:38:43:e7:9c:fe:a1:4d:
        f5:59:61:57:96:fb:e9:1c:cb:9e:3f:2f:23:55:ac:87:79:1c:
        12:a2:30:a3:6d:ee:59:43:bd:63:1c:bd:f5:fb:33:5f:1e:19:
        a3:a8:18:7c:ea:22:71:db:58:1a:f7:8c:f4:c7:45:03:d3:02:
        ae:0b:f0:ec:dd:54:38:ae:52:2c:53:10:a2:e7:22:a9:61:3a:
        17:7a:27:e0:32:57:9c:df:e2:4e:95:56:c3:63:b2:1f:9d:45:
        90:78:66:18:4e:db:1a:64:93:f3:bc:68:52:08:9e:46:8d:69:
        1c:fd:e3:a9:6c:5c:dc:02:17:aa:e3:08:56:a6:36:a2:9d:cc:
        65:27:81:87:5d:63:1a:21:99:55:52:10:b4:d0:9e:a9:e2:92:
        fa:4a:cd:ce
-----BEGIN CERTIFICATE-----
MIID0DCCArigAwIBAgICEAEwDQYJKoZIhvcNAQELBQAwgZAxCzAJBgNVBAYTAkJE
MQ8wDQYDVQQIDAZTWUxIRVQxGDAWBgNVBAcMD0FraGFsaWEsIFNodXJtYTENMAsG
A1UECgwEU1VTVDEMMAoGA1UECwwDU1dFMREwDwYDVQQDDAhhYnJhYXIxOTEmMCQG
CSqGSIb3DQEJARYXYWJyYWFyLmNvZGVzQGljbG91ZC5jb20wHhcNMjQwNzAyMDcw
OTI3WhcNMjUwNzAyMDcwOTI3WjB2MQswCQYDVQQGEwJCRDEPMA0GA1UECAwGU1lM
SEVUMQ0wCwYDVQQKDARTVVNUMQwwCgYDVQQLDANTV0UxETAPBgNVBAMMCGFicmFh
cjE5MSYwJAYJKoZIhvcNAQkBFhdhYnJhYXIuY29kZXNAaWNsb3VkLmNvbTCCASIw
DQYJKoZIhvcNAQEBBQADggEPADCCAQoCggEBALLaXgq3tA4zfvchg1Y8V1YLYvxe
Sbon8ukWkptZeVtsB8s+yWfZlCg+hi5TxB9dYb1o1rc1JWUDylTludfIJO60aRbD
KsvSR+Ldj7nkDgZPuNE9ehmjVjocsRkXfzVJQgRVs+GOM8mcTshl0yDd9PzG6L+G
2ymPDgxgKQXWkxgughAj5BraET20SBG6Umkjlem8aLIdgTFiEOUcPSm7g1bnT85d
UN5+C1f+HzMnHmyFJMfOXFfW8ucAIBUqBx+Nbcd5u/NUClf/yApf/PogvzzQOApz
2mNMPFKtskaFKriH28aXgKqDGrgkTo4H1Ea+/mgxRbk0ewLrcS9ob+++l5MCAwEA
AaNNMEswCQYDVR0TBAIwADAdBgNVHQ4EFgQUVX3EALA2EFZnLcfNtfWwzVEHMOsw
HwYDVR0jBBgwFoAUJAA1bdNZJsseUSDmFZikYM07l1owDQYJKoZIhvcNAQELBQAD
ggEBAFNKNakggoQql5pv5zJDeTU5C7/mSwT4YXomA07PSq/BjCjuj10s50YgKlc0
dlsXMui8pxOtlvkzH5VEU2nZ6G2GwlEQ3OWreZmtQe6CAAK8XBnGNoOD0XntWU9Y
fcZuJ4dLc+wEOEPnnP6hTfVZYVeW++kcy54/LyNVrId5HBKiMKNt7llDvWMcvfX7
M18eGaOoGHzqInHbWBr3jPTHRQPTAq4L8OzdVDiuUixTEKLnIqlhOhd6J+AyV5zf
4k6VVsNjsh+dRZB4ZhhO2xpkk/O8aFIInkaNaRz946lsXNwCF6rjCFamNqKdzGUn
gYddYxohmVVSELTQnqnikvpKzc4=
-----END CERTIFICATE-----
