Certificate:
    Data:
        Version: 3 (0x2)
        Serial Number: 4096 (0x1000)
        Signature Algorithm: sha256WithRSAEncryption
        Issuer: C=BD, ST=Sylhet, L=Akhalia, SHurma, O=SUST, OU=SWE, CN=abraar19/emailAddress=abraar.codes@icloud.com
        Validity
            Not Before: Jul  2 06:41:18 2024 GMT
            Not After : Jul  2 06:41:18 2025 GMT
        Subject: C=BD, ST=Sylhet, O=SUST, OU=SWE, CN=abraar19/emailAddress=abraar.codes@icloud.com
        Subject Public Key Info:
            Public Key Algorithm: rsaEncryption
                Public-Key: (1024 bit)
                Modulus:
                    00:c6:53:87:f1:e9:08:c8:12:85:42:a1:50:44:a0:
                    26:62:f1:f4:49:b3:0e:bf:7f:12:df:8b:8f:05:20:
                    63:5b:62:f2:bc:11:92:52:ca:2d:f5:db:63:c8:7a:
                    1e:99:21:94:a5:8f:30:40:e6:ce:e2:e1:7c:76:62:
                    6e:96:3f:aa:49:e8:d6:7c:0a:1c:ca:03:86:40:26:
                    62:d4:67:be:2d:8f:59:ba:c5:1c:39:2a:e9:c6:47:
                    fc:00:b2:b0:54:26:6a:d5:45:eb:e0:ad:bc:22:41:
                    54:fc:76:82:69:9a:dc:21:a4:29:04:a7:81:10:5d:
                    bb:04:d3:b8:12:d3:28:c5:c5
                Exponent: 65537 (0x10001)
        X509v3 extensions:
            X509v3 Basic Constraints: 
                CA:FALSE
            X509v3 Subject Key Identifier: 
                AA:67:CE:47:DC:7B:9C:4B:82:DC:E6:47:93:F4:A2:FD:E8:E3:EB:DA
            X509v3 Authority Key Identifier: 
                C7:E1:A8:2C:77:21:4F:4B:D4:D9:07:15:B0:84:9C:1F:9C:7D:13:61
    Signature Algorithm: sha256WithRSAEncryption
    Signature Value:
        9b:a1:15:5c:88:dc:9d:be:7a:7e:8c:60:5d:1a:86:34:e7:75:
        cf:04:b2:8f:bd:c7:a7:66:a4:b5:50:7a:8c:13:0c:7b:ff:5a:
        85:76:78:fe:47:af:be:c7:59:5d:df:6f:c9:d3:a4:d8:a5:6d:
        86:74:6b:e1:5e:bc:d5:de:45:d0:ec:f7:02:15:6c:fd:cd:59:
        3c:c2:c3:35:7d:02:f0:82:a7:1f:93:6e:a2:88:9d:60:4a:40:
        1b:6a:36:60:79:0b:2c:2d:91:9b:c8:41:fc:3d:af:26:fa:7d:
        af:b9:69:56:8f:36:dd:b3:99:b6:63:05:a0:78:92:14:f0:1e:
        b2:ed:fe:1f:47:84:ff:35:af:05:ae:05:f8:d0:c6:02:c5:a0:
        0c:57:dd:98:db:a7:a8:4f:89:75:6a:c2:cc:84:c5:79:1f:77:
        e3:01:ca:45:a4:ec:8c:d5:a6:32:be:c5:15:9e:f3:e5:60:c7:
        89:dd:f7:24:95:1b:62:b7:9d:10:47:65:ca:04:28:42:3b:ec:
        46:a5:2e:8b:51:fa:30:e3:60:64:72:c1:3d:db:dc:7c:65:5f:
        d7:5c:a9:80:9d:b5:4b:42:78:a0:94:3b:2a:60:cb:27:22:2d:
        2b:ae:da:4c:41:3f:b4:49:3a:e7:ff:ad:b8:31:fa:7d:7d:a6:
        46:20:d3:20
-----BEGIN CERTIFICATE-----
MIIDTDCCAjSgAwIBAgICEAAwDQYJKoZIhvcNAQELBQAwgZAxCzAJBgNVBAYTAkJE
MQ8wDQYDVQQIDAZTeWxoZXQxGDAWBgNVBAcMD0FraGFsaWEsIFNIdXJtYTENMAsG
A1UECgwEU1VTVDEMMAoGA1UECwwDU1dFMREwDwYDVQQDDAhhYnJhYXIxOTEmMCQG
CSqGSIb3DQEJARYXYWJyYWFyLmNvZGVzQGljbG91ZC5jb20wHhcNMjQwNzAyMDY0
MTE4WhcNMjUwNzAyMDY0MTE4WjB2MQswCQYDVQQGEwJCRDEPMA0GA1UECAwGU3ls
aGV0MQ0wCwYDVQQKDARTVVNUMQwwCgYDVQQLDANTV0UxETAPBgNVBAMMCGFicmFh
cjE5MSYwJAYJKoZIhvcNAQkBFhdhYnJhYXIuY29kZXNAaWNsb3VkLmNvbTCBnzAN
BgkqhkiG9w0BAQEFAAOBjQAwgYkCgYEAxlOH8ekIyBKFQqFQRKAmYvH0SbMOv38S
34uPBSBjW2LyvBGSUsot9dtjyHoemSGUpY8wQObO4uF8dmJulj+qSejWfAocygOG
QCZi1Ge+LY9ZusUcOSrpxkf8ALKwVCZq1UXr4K28IkFU/HaCaZrcIaQpBKeBEF27
BNO4EtMoxcUCAwEAAaNNMEswCQYDVR0TBAIwADAdBgNVHQ4EFgQUqmfOR9x7nEuC
3OZHk/Si/ejj69owHwYDVR0jBBgwFoAUx+GoLHchT0vU2QcVsIScH5x9E2EwDQYJ
KoZIhvcNAQELBQADggEBAJuhFVyI3J2+en6MYF0ahjTndc8Eso+9x6dmpLVQeowT
DHv/WoV2eP5Hr77HWV3fb8nTpNilbYZ0a+FevNXeRdDs9wIVbP3NWTzCwzV9AvCC
px+TbqKInWBKQBtqNmB5CywtkZvIQfw9ryb6fa+5aVaPNt2zmbZjBaB4khTwHrLt
/h9HhP81rwWuBfjQxgLFoAxX3Zjbp6hPiXVqwsyExXkfd+MBykWk7IzVpjK+xRWe
8+Vgx4nd9ySVG2K3nRBHZcoEKEI77EalLotR+jDjYGRywT3b3HxlX9dcqYCdtUtC
eKCUOypgyyciLSuu2kxBP7RJOuf/rbgx+n19pkYg0yA=
-----END CERTIFICATE-----
